(i__main__
LogFile
p0
(dp1
S'_installed_files'
p2
(dp3
S'../../../../../../../../../../cvmfs/atlas.cern.ch/repo/sw/software/i686-slc5-gcc43-opt/17.0.5/GAUDI/v22r1p5/GaudiPolicy/cmt/fragments/__init__.py'
p4
S'../../InstallArea/python/ZeeB/__init__.py'
p5
sS'../../ZeeB/genConf/ZeeB'
p6
(dp7
S'../../../ZeeB/genConf/ZeeB/ZeeB_confDb.py'
p8
S'../../InstallArea/python/ZeeB/ZeeB_confDb.py'
p9
sS'../../../ZeeB/genConf/ZeeB/ZeeBConf.py'
p10
S'../../InstallArea/python/ZeeB/ZeeBConf.py'
p11
sssb.